Certificate:
Data:
Version: 3 (0x2)
Serial Number: 9906 (0x26b2)
Signature Algorithm: sha256WithRSAEncryption
Issuer: C=US, ST=Washington, L=Seattle, O=getaCert - www.getacert.com
Validity
Not Before: Oct 26 22:16:35 2023 GMT
Not After : Dec 25 22:16:35 2023 GMT
Subject: C=BE, ST=Brussels, L=Saint-Gilles, O=Default Company Ltd, OU=IT, CN=ec2-52-47-82-252.eu-west-3.compute.amazonaws.com/emailAddress=djedouarnaud.aman@gmail.com
Subject Public Key Info:
Public Key Algorithm: rsaEncryption
RSA Public-Key: (4096 bit)
Modulus:
00:bc:3e:bc:39:26:6b:e2:51:23:d9:3f:5a:c3:ec:
80:f6:14:ab:85:9d:63:c2:c0:62:5b:97:d7:65:08:
01:d3:4f:a5:93:bf:85:ff:b6:71:02:5c:68:35:e2:
24:aa:3a:05:38:6d:4e:28:5d:99:8b:19:b8:e3:3c:
14:9a:2a:0e:5a:db:05:df:67:a1:3f:03:9a:b4:97:
19:73:57:67:9d:f9:66:e4:c4:b1:96:e3:b7:b6:03:
d6:ba:e8:b5:bd:b0:09:99:57:86:5a:75:e7:7a:04:
c0:61:1d:af:7f:8e:45:0c:13:aa:4b:08:4e:fa:a0:
8b:e1:7e:10:7d:7f:f3:a2:72:1e:49:9b:e9:55:85:
81:bb:32:7c:93:3c:25:ea:82:45:d3:b5:3d:bf:5d:
0f:41:ae:2a:17:da:b2:31:50:07:81:24:bf:43:f1:
b7:08:68:8a:09:51:f5:25:ca:bd:74:35:69:6a:b1:
94:05:2f:8a:71:7c:f6:68:1c:93:bb:3e:db:db:52:
8e:6c:8f:4e:79:9a:d2:da:2e:7f:06:40:56:3a:a3:
61:e3:41:60:64:1d:f5:a0:e3:3d:b9:63:51:de:60:
18:75:78:76:b8:75:cc:38:5c:15:ed:2b:89:ed:bd:
6b:a1:63:d3:da:dc:f4:2c:0d:25:14:59:6a:14:d3:
ae:ec:3c:57:1f:67:c6:55:34:d7:1f:b2:2e:57:cc:
28:73:6e:b9:26:67:94:72:4f:b8:69:08:ed:bb:d6:
c2:e6:0d:ac:47:d7:4a:a4:5e:92:ad:ca:5d:58:a1:
18:3b:39:51:20:14:bb:65:83:2f:b9:f8:cc:64:d4:
17:27:40:9f:56:7d:9b:09:41:ab:cc:8a:9c:e4:97:
43:20:f8:7e:d3:d5:a5:89:c0:60:6b:91:20:ae:b4:
da:69:42:74:6c:cf:98:76:0c:aa:94:f8:0d:71:03:
0d:ac:e2:24:0e:24:e5:d1:0d:fd:a1:a5:49:da:ce:
d9:77:da:e2:35:30:8e:e6:a9:8c:83:51:f9:69:e4:
ba:79:37:d8:82:56:1b:50:35:ab:60:87:ea:70:d8:
0a:5b:5b:0a:8d:a7:09:86:4b:51:30:e2:78:38:ec:
44:bc:20:7f:b9:e6:95:91:7f:a9:a8:52:46:0a:39:
b8:79:6e:0b:9a:1d:40:0c:e0:5d:0f:7d:0a:6f:50:
ae:05:dc:39:28:38:eb:eb:65:aa:f3:38:22:91:d5:
cd:9f:82:e4:04:44:cd:50:58:cb:3f:6e:83:da:29:
4c:90:2e:20:41:02:70:68:cd:25:9c:33:ea:26:54:
e8:dd:05:93:5c:f8:96:a4:c5:7c:7f:51:9b:05:96:
62:5d:ff
Exponent: 65537 (0x10001)
X509v3 extensions:
X509v3 Basic Constraints:
CA:FALSE
Netscape Cert Type:
SSL Client, SSL Server, S/MIME, Object Signing
X509v3 Key Usage:
Digital Signature, Key Encipherment
X509v3 Extended Key Usage:
TLS Web Client Authentication, TLS Web Server Authentication
Signature Algorithm: sha256WithRSAEncryption
4f:db:28:0e:76:d1:b1:40:ee:57:f2:38:30:30:9e:96:0f:30:
bf:63:7e:f1:2a:50:db:84:d9:e7:6e:70:be:65:09:eb:f7:3f:
bc:64:b8:b5:a4:21:10:eb:1c:b8:fe:61:91:3b:be:a7:82:3e:
d5:b7:5b:5a:77:1d:3a:e4:5d:d7:fd:07:99:67:4b:af:68:90:
04:8b:76:91:af:a8:29:f4:e0:33:a3:ef:61:ab:33:d3:2a:f8:
40:c3:85:b6:d5:73:e9:6d:bc:06:41:10:5f:b1:b4:7f:7a:b4:
b1:82:56:f0:57:ed:dc:d3:76:df:68:40:f9:c0:9f:52:d6:b7:
41:2a:00:a4:13:2b:87:12:94:5f:24:e9:03:c9:ac:f7:e0:bf:
81:a4:29:9e:29:a4:4c:4f:3c:c9:92:9a:9d:f3:e3:de:cf:a0:
c6:e0:23:f0:02:ba:b4:cd:5e:27:d7:90:ee:a3:79:26:89:05:
83:29:a6:92:03:bf:02:ae:be:1c:61:e8:a5:45:36:7e:1b:74:
87:27:d4:28:29:92:90:37:4f:11:0e:a4:55:57:11:1d:da:ce:
e0:fc:d2:6a:6c:a5:e2:05:33:21:a4:c5:fd:d8:6b:6e:52:7d:
2c:f9:9c:dd:aa:ee:b2:88:c7:30:07:d9:89:11:7d:54:97:44:
9c:4e:e6:2e
-----BEGIN CERTIFICATE-----
MIIE7DCCA9SgAwIBAgICJrIwDQYJKoZIhvcNAQELBQAwWjELMAkGA1UEBhMCVVMx
EzARBgNVBAgTCldhc2hpbmd0b24xEDAOBgNVBAcTB1NlYXR0bGUxJDAiBgNVBAoT
G2dldGFDZXJ0IC0gd3d3LmdldGFjZXJ0LmNvbTAeFw0yMzEwMjYyMjE2MzVaFw0y
MzEyMjUyMjE2MzVaMIHJMQswCQYDVQQGEwJCRTERMA8GA1UECAwIQnJ1c3NlbHMx
FTATBgNVBAcMDFNhaW50LUdpbGxlczEcMBoGA1UECgwTRGVmYXVsdCBDb21wYW55
IEx0ZDELMAkGA1UECwwCSVQxOTA3BgNVBAMMMGVjMi01Mi00Ny04Mi0yNTIuZXUt
d2VzdC0zLmNvbXB1dGUuYW1hem9uYXdzLmNvbTEqMCgGCSqGSIb3DQEJARYbZGpl
ZG91YXJuYXVkLmFtYW5AZ21haWwuY29tMIICIjANBgkqhkiG9w0BAQEFAAOCAg8A
MIICCgKCAgEAvD68OSZr4lEj2T9aw+yA9hSrhZ1jwsBiW5fXZQgB00+lk7+F/7Zx
AlxoNeIkqjoFOG1OKF2Zixm44zwUmioOWtsF32ehPwOatJcZc1dnnflm5MSxluO3
tgPWuui1vbAJmVeGWnXnegTAYR2vf45FDBOqSwhO+qCL4X4QfX/zonIeSZvpVYWB
uzJ8kzwl6oJF07U9v10PQa4qF9qyMVAHgSS/Q/G3CGiKCVH1Jcq9dDVparGUBS+K
cXz2aByTuz7b21KObI9OeZrS2i5/BkBWOqNh40FgZB31oOM9uWNR3mAYdXh2uHXM
OFwV7SuJ7b1roWPT2tz0LA0lFFlqFNOu7DxXH2fGVTTXH7IuV8woc265JmeUck+4
aQjtu9bC5g2sR9dKpF6SrcpdWKEYOzlRIBS7ZYMvufjMZNQXJ0CfVn2bCUGrzIqc
5JdDIPh+09WlicBga5EgrrTaaUJ0bM+YdgyqlPgNcQMNrOIkDiTl0Q39oaVJ2s7Z
d9riNTCO5qmMg1H5aeS6eTfYglYbUDWrYIfqcNgKW1sKjacJhktRMOJ4OOxEvCB/
ueaVkX+pqFJGCjm4eW4Lmh1ADOBdD30Kb1CuBdw5KDjr62Wq8zgikdXNn4LkBETN
UFjLP26D2ilMkC4gQQJwaM0lnDPqJlTo3QWTXPiWpMV8f1GbBZZiXf8CAwEAAaNM
MEowCQYDVR0TBAIwADARBglghkgBhvhCAQEEBAMCBPAwCwYDVR0PBAQDAgWgMB0G
A1UdJQQWMBQGCCsGAQUFBwMCBggrBgEFBQcDATANBgkqhkiG9w0BAQsFAAOCAQEA
T9soDnbRsUDuV/I4MDCelg8wv2N+8SpQ24TZ525wvmUJ6/c/vGS4taQhEOscuP5h
kTu+p4I+1bdbWncdOuRd1/0HmWdLr2iQBIt2ka+oKfTgM6PvYasz0yr4QMOFttVz
6W28BkEQX7G0f3q0sYJW8Fft3NN232hA+cCfUta3QSoApBMrhxKUXyTpA8ms9+C/
gaQpnimkTE88yZKanfPj3s+gxuAj8AK6tM1eJ9eQ7qN5JokFgymmkgO/Aq6+HGHo
pUU2fht0hyfUKCmSkDdPEQ6kVVcRHdrO4PzSamyl4gUzIaTF/dhrblJ9LPmc3aru
sojHMAfZiRF9VJdEnE7mLg==
-----END CERTIFICATE-----